; Function Attrs: nounwind uwtable
define dso_local void @shm_mq_set_sender(ptr noundef %0, ptr noundef %1) local_unnamed_addr #0 {
  %3 = tail call i8 asm sideeffect "\09lock\09\09\09\0A\09xchgb\09$0,$1\09\0A", "=q,=*m,0,*m,~{memory},~{cc},~{dirflag},~{fpsr},~{flags}"(ptr elementtype(i8) %0, i8 1, ptr elementtype(i8) %0) #11, !srcloc !5
  %.not = icmp eq i8 %3, 0
  br i1 %.not, label %6, label %4

4:                                                ; preds = %2
  %5 = tail call i32 @s_lock(ptr noundef %0, ptr noundef nonnull @.str, i32 noundef 228, ptr noundef nonnull @__func__.shm_mq_set_sender) #11
  br label %6

6:                                                ; preds = %2, %4
  %7 = getelementptr inbounds nuw i8, ptr %0, i64 16
  store ptr %1, ptr %7, align 8
  %8 = getelementptr inbounds nuw i8, ptr %0, i64 8
  %9 = load ptr, ptr %8, align 8
  tail call void asm sideeffect "", "~{memory},~{dirflag},~{fpsr},~{flags}"() #11, !srcloc !7
  store i8 0, ptr %0, align 8
  %.not8 = icmp eq ptr %9, null
  br i1 %.not8, label %12, label %10

10:                                               ; preds = %6
  %11 = getelementptr inbounds nuw i8, ptr %9, i64 36
  tail call void @SetLatch(ptr noundef nonnull %11) #11
  br label %12

12:                                               ; preds = %10, %6
  ret void
}